target datalayout = "e-m:e-p270:32:32-p271:32:32-p272:64:64-i64:64-i128:128-f80:128-n8:16:32:64-S128"
target triple = "x86_64-pc-linux-gnu"

%struct.H5T_t = type { %struct.H5O_shared_t, ptr, %struct.H5O_loc_t, %struct.H5G_name_t, ptr }
%struct.H5O_shared_t = type { i32, ptr, i32, %union.anon }
%union.anon = type { %struct.H5O_mesg_loc_t }
%struct.H5O_mesg_loc_t = type { i32, i64 }
%struct.H5O_loc_t = type { ptr, i64, i8 }
%struct.H5G_name_t = type { ptr, ptr, i32 }
%struct.H5T_shared_t = type { i64, i32, i32, i64, i32, i8, ptr, ptr, %union.anon.0 }
%union.anon.0 = type { %struct.H5T_array_t }
%struct.H5T_array_t = type { i64, i32, [32 x i64] }

@H5O_dtype_ver_bounds = constant [6 x i32] [i32 1, i32 3, i32 3, i32 4, i32 4, i32 4], align 16
@.str.2 = private unnamed_addr constant [97 x i8] c"generated/home/dtcxzyw/WorkSpace/Projects/compilers/llvm-opt-benchmark/bench/hdf5/hdf5/src/H5T.c\00", align 1
@H5E_DATATYPE_g = external global i64, align 8
@H5E_CANTSET_g = external global i64, align 8
@__func__.H5T__upgrade_version = private unnamed_addr constant [21 x i8] c"H5T__upgrade_version\00", align 1
@H5E_BADITER_g = external global i64, align 8
@.str.332 = private unnamed_addr constant [54 x i8] c"iteration to upgrade datatype encoding version failed\00", align 1
@__func__.H5T_set_version = private unnamed_addr constant [16 x i8] c"H5T_set_version\00", align 1
@.str.333 = private unnamed_addr constant [32 x i8] c"can't upgrade datatype encoding\00", align 1
@H5E_BADRANGE_g = external global i64, align 8
@.str.334 = private unnamed_addr constant [31 x i8] c"Datatype version out of bounds\00", align 1

; Function Attrs: nounwind uwtable
define i32 @H5T__upgrade_version(ptr noundef %0, i32 noundef %1) #0 {
  %3 = alloca ptr, align 8
  %4 = alloca i32, align 4
  %5 = alloca i32, align 4
  %6 = alloca i8, align 1
  store ptr %0, ptr %3, align 8
  store i32 %1, ptr %4, align 4
  store i32 0, ptr %5, align 4
  store i8 0, ptr %6, align 1
  %7 = load ptr, ptr %3, align 8
  %8 = call i32 @H5T__visit(ptr noundef %7, i32 noundef 6, ptr noundef @H5T__upgrade_version_cb, ptr noundef %4)
  %9 = icmp slt i32 %8, 0
  br i1 %9, label %10, label %25

10:                                               ; preds = %2
  br label %11

11:                                               ; preds = %10
  br label %12

12:                                               ; preds = %11
  br label %13

13:                                               ; preds = %12
  %14 = load i64, ptr @H5E_DATATYPE_g, align 8
  %15 = load i64, ptr @H5E_BADITER_g, align 8
  %16 = call i32 (ptr, ptr, i32, i64, i64, ptr, ...) @H5E_printf_stack(ptr noundef @.str.2, ptr noundef @__func__.H5T__upgrade_version, i32 noundef 6573, i64 noundef %14, i64 noundef %15, ptr noundef @.str.332)
  br label %17

17:                                               ; preds = %13
  store i8 1, ptr %6, align 1
  %18 = load i8, ptr %6, align 1
  %19 = trunc i8 %18 to i1
  %20 = zext i1 %19 to i8
  store i8 %20, ptr %6, align 1
  br label %21

21:                                               ; preds = %17
  br label %22

22:                                               ; preds = %21
  store i32 -1, ptr %5, align 4
  br label %26

23:                                               ; No predecessors!
  br label %24

24:                                               ; preds = %23
  br label %25

25:                                               ; preds = %24, %2
  br label %26

26:                                               ; preds = %25, %22
  %27 = load i32, ptr %5, align 4
  ret i32 %27
}

; Function Attrs: nounwind uwtable
define i32 @H5T_set_version(ptr noundef %0, ptr noundef %1) #0 {
  %3 = alloca ptr, align 8
  %4 = alloca ptr, align 8
  %5 = alloca i32, align 4
  %6 = alloca i32, align 4
  %7 = alloca i8, align 1
  store ptr %0, ptr %3, align 8
  store ptr %1, ptr %4, align 8
  store i32 0, ptr %6, align 4
  store i8 0, ptr %7, align 1
  %8 = load ptr, ptr %3, align 8
  %9 = call i32 @H5F_get_low_bound(ptr noundef %8)
  %10 = sext i32 %9 to i64
  %11 = getelementptr inbounds [6 x i32], ptr @H5O_dtype_ver_bounds, i64 0, i64 %10
  %12 = load i32, ptr %11, align 4
  store i32 %12, ptr %5, align 4
  %13 = load i32, ptr %5, align 4
  %14 = load ptr, ptr %4, align 8
  %15 = getelementptr inbounds %struct.H5T_t, ptr %14, i32 0, i32 1
  %16 = load ptr, ptr %15, align 8
  %17 = getelementptr inbounds %struct.H5T_shared_t, ptr %16, i32 0, i32 4
  %18 = load i32, ptr %17, align 8
  %19 = icmp ugt i32 %13, %18
  br i1 %19, label %20, label %41

20:                                               ; preds = %2
  %21 = load ptr, ptr %4, align 8
  %22 = load i32, ptr %5, align 4
  %23 = call i32 @H5T__upgrade_version(ptr noundef %21, i32 noundef %22)
  %24 = icmp slt i32 %23, 0
  br i1 %24, label %25, label %40

25:                                               ; preds = %20
  br label %26

26:                                               ; preds = %25
  br label %27

27:                                               ; preds = %26
  br label %28

28:                                               ; preds = %27
  %29 = load i64, ptr @H5E_DATATYPE_g, align 8
  %30 = load i64, ptr @H5E_CANTSET_g, align 8
  %31 = call i32 (ptr, ptr, i32, i64, i64, ptr, ...) @H5E_printf_stack(ptr noundef @.str.2, ptr noundef @__func__.H5T_set_version, i32 noundef 6606, i64 noundef %29, i64 noundef %30, ptr noundef @.str.333)
  br label %32

32:                                               ; preds = %28
  store i8 1, ptr %7, align 1
  %33 = load i8, ptr %7, align 1
  %34 = trunc i8 %33 to i1
  %35 = zext i1 %34 to i8
  store i8 %35, ptr %7, align 1
  br label %36

36:                                               ; preds = %32
  br label %37

37:                                               ; preds = %36
  store i32 -1, ptr %6, align 4
  br label %69

38:                                               ; No predecessors!
  br label %39

39:                                               ; preds = %38
  br label %40

40:                                               ; preds = %39, %20
  br label %41

41:                                               ; preds = %40, %2
  %42 = load ptr, ptr %4, align 8
  %43 = getelementptr inbounds %struct.H5T_t, ptr %42, i32 0, i32 1
  %44 = load ptr, ptr %43, align 8
  %45 = getelementptr inbounds %struct.H5T_shared_t, ptr %44, i32 0, i32 4
  %46 = load i32, ptr %45, align 8
  %47 = load ptr, ptr %3, align 8
  %48 = call i32 @H5F_get_high_bound(ptr noundef %47)
  %49 = sext i32 %48 to i64
  %50 = getelementptr inbounds [6 x i32], ptr @H5O_dtype_ver_bounds, i64 0, i64 %49
  %51 = load i32, ptr %50, align 4
  %52 = icmp ugt i32 %46, %51
  br i1 %52, label %53, label %68

53:                                               ; preds = %41
  br label %54

54:                                               ; preds = %53
  br label %55

55:                                               ; preds = %54
  br label %56

56:                                               ; preds = %55
  %57 = load i64, ptr @H5E_DATATYPE_g, align 8
  %58 = load i64, ptr @H5E_BADRANGE_g, align 8
  %59 = call i32 (ptr, ptr, i32, i64, i64, ptr, ...) @H5E_printf_stack(ptr noundef @.str.2, ptr noundef @__func__.H5T_set_version, i32 noundef 6611, i64 noundef %57, i64 noundef %58, ptr noundef @.str.334)
  br label %60

60:                                               ; preds = %56
  store i8 1, ptr %7, align 1
  %61 = load i8, ptr %7, align 1
  %62 = trunc i8 %61 to i1
  %63 = zext i1 %62 to i8
  store i8 %63, ptr %7, align 1
  br label %64

64:                                               ; preds = %60
  br label %65

65:                                               ; preds = %64
  store i32 -1, ptr %6, align 4
  br label %69

66:                                               ; No predecessors!
  br label %67

67:                                               ; preds = %66
  br label %68

68:                                               ; preds = %67, %41
  br label %69

69:                                               ; preds = %68, %65, %37
  %70 = load i32, ptr %6, align 4
  ret i32 %70
}