; Function Attrs: nounwind uwtable
define range(i32 -1, 1) i32 @H5T_set_version(ptr noundef %0, ptr noundef %1) local_unnamed_addr #0 {
  %3 = alloca i32, align 4
  %4 = tail call i32 @H5F_get_low_bound(ptr noundef %0) #17
  %5 = sext i32 %4 to i64
  %6 = getelementptr inbounds [6 x i32], ptr @H5O_dtype_ver_bounds, i64 0, i64 %5
  %7 = load i32, ptr %6, align 4
  %8 = getelementptr inbounds i8, ptr %1, i64 40
  %9 = load ptr, ptr %8, align 8
  %10 = getelementptr inbounds i8, ptr %9, i64 24
  %11 = load i32, ptr %10, align 8
  %12 = icmp ugt i32 %7, %11
  br i1 %12, label %13, label %23

13:                                               ; preds = %2
  call void @llvm.lifetime.start.p0(i64 4, ptr nonnull %3)
  store i32 %7, ptr %3, align 4
  %14 = call i32 @H5T__visit(ptr noundef nonnull %1, i32 noundef 6, ptr noundef nonnull @H5T__upgrade_version_cb, ptr noundef nonnull %3) #17
  %15 = icmp slt i32 %14, 0
  br i1 %15, label %16, label %H5T__upgrade_version.exit

H5T__upgrade_version.exit:                        ; preds = %13
  call void @llvm.lifetime.end.p0(i64 4, ptr nonnull %3)
  %.pre = load ptr, ptr %8, align 8
  %.phi.trans.insert = getelementptr inbounds i8, ptr %.pre, i64 24
  %.pre11 = load i32, ptr %.phi.trans.insert, align 8
  br label %23

16:                                               ; preds = %13
  %17 = load i64, ptr @H5E_DATATYPE_g, align 8
  %18 = load i64, ptr @H5E_BADITER_g, align 8
  %19 = call i32 (ptr, ptr, i32, i64, i64, ptr, ...) @H5E_printf_stack(ptr noundef nonnull @.str.2, ptr noundef nonnull @__func__.H5T__upgrade_version, i32 noundef 6573, i64 noundef %17, i64 noundef %18, ptr noundef nonnull @.str.332) #17
  call void @llvm.lifetime.end.p0(i64 4, ptr nonnull %3)
  %20 = load i64, ptr @H5E_DATATYPE_g, align 8
  %21 = load i64, ptr @H5E_CANTSET_g, align 8
  %22 = call i32 (ptr, ptr, i32, i64, i64, ptr, ...) @H5E_printf_stack(ptr noundef nonnull @.str.2, ptr noundef nonnull @__func__.H5T_set_version, i32 noundef 6606, i64 noundef %20, i64 noundef %21, ptr noundef nonnull @.str.333) #17
  br label %34

23:                                               ; preds = %H5T__upgrade_version.exit, %2
  %24 = phi i32 [ %.pre11, %H5T__upgrade_version.exit ], [ %11, %2 ]
  %25 = call i32 @H5F_get_high_bound(ptr noundef %0) #17
  %26 = sext i32 %25 to i64
  %27 = getelementptr inbounds [6 x i32], ptr @H5O_dtype_ver_bounds, i64 0, i64 %26
  %28 = load i32, ptr %27, align 4
  %29 = icmp ugt i32 %24, %28
  br i1 %29, label %30, label %34

30:                                               ; preds = %23
  %31 = load i64, ptr @H5E_DATATYPE_g, align 8
  %32 = load i64, ptr @H5E_BADRANGE_g, align 8
  %33 = call i32 (ptr, ptr, i32, i64, i64, ptr, ...) @H5E_printf_stack(ptr noundef nonnull @.str.2, ptr noundef nonnull @__func__.H5T_set_version, i32 noundef 6611, i64 noundef %31, i64 noundef %32, ptr noundef nonnull @.str.334) #17
  br label %34

34:                                               ; preds = %23, %30, %16
  %.0 = phi i32 [ -1, %16 ], [ -1, %30 ], [ 0, %23 ]
  ret i32 %.0
}